target datalayout = "e-m:e-p270:32:32-p271:32:32-p272:64:64-i64:64-i128:128-f80:128-n8:16:32:64-S128"
target triple = "x86_64-pc-linux-gnu"

@.str.1 = private unnamed_addr constant [13 x i8] c"script_lua.c\00", align 1
@.str.40 = private unnamed_addr constant [12 x i8] c"__RUN_CTX__\00", align 1
@.str.98 = private unnamed_addr constant [5 x i8] c"rctx\00", align 1
@.str.114 = private unnamed_addr constant [39 x i8] c"redis.setresp() requires one argument.\00", align 1
@.str.115 = private unnamed_addr constant [29 x i8] c"RESP version must be 2 or 3.\00", align 1

; Function Attrs: nounwind uwtable
define dso_local i32 @luaError(ptr noundef %0) #0 {
  %2 = alloca ptr, align 8
  store ptr %0, ptr %2, align 8, !tbaa !5
  %3 = load ptr, ptr %2, align 8, !tbaa !5
  %4 = call i32 @lua_error(ptr noundef %3)
  ret i32 %4
}

; Function Attrs: nounwind uwtable
define dso_local void @luaPushError(ptr noundef %0, ptr noundef %1) #0 {
  %3 = alloca ptr, align 8
  %4 = alloca ptr, align 8
  store ptr %0, ptr %3, align 8, !tbaa !5
  store ptr %1, ptr %4, align 8, !tbaa !10
  %5 = load ptr, ptr %3, align 8, !tbaa !5
  %6 = load ptr, ptr %4, align 8, !tbaa !10
  %7 = call ptr @sdsnew(ptr noundef %6)
  call void @luaPushErrorBuff(ptr noundef %5, ptr noundef %7)
  ret void
}

; Function Attrs: nounwind uwtable
define internal i32 @luaSetResp(ptr noundef %0) #0 {
  %2 = alloca i32, align 4
  %3 = alloca ptr, align 8
  %4 = alloca ptr, align 8
  %5 = alloca i32, align 4
  %6 = alloca i32, align 4
  %7 = alloca i32, align 4
  store ptr %0, ptr %3, align 8, !tbaa !5
  call void @llvm.lifetime.start.p0(i64 8, ptr %4) #12
  %8 = load ptr, ptr %3, align 8, !tbaa !5
  %9 = call ptr @luaGetFromRegistry(ptr noundef %8, ptr noundef @.str.40)
  store ptr %9, ptr %4, align 8, !tbaa !64
  %10 = load ptr, ptr %4, align 8, !tbaa !64
  %11 = icmp ne ptr %10, null
  %12 = xor i1 %11, true
  %13 = xor i1 %12, true
  %14 = zext i1 %13 to i32
  %15 = sext i32 %14 to i64
  %16 = call i64 @llvm.expect.i64(i64 %15, i64 1)
  %17 = icmp ne i64 %16, 0
  br i1 %17, label %18, label %19

18:                                               ; preds = %1
  br label %21

19:                                               ; preds = %1
  call void @_serverAssert(ptr noundef @.str.98, ptr noundef @.str.1, i32 noundef 1186)
  call void @abort() #11
  unreachable

20:                                               ; No predecessors!
  br label %21

21:                                               ; preds = %20, %18
  call void @llvm.lifetime.start.p0(i64 4, ptr %5) #12
  %22 = load ptr, ptr %3, align 8, !tbaa !5
  %23 = call i32 @lua_gettop(ptr noundef %22)
  store i32 %23, ptr %5, align 4, !tbaa !16
  %24 = load i32, ptr %5, align 4, !tbaa !16
  %25 = icmp ne i32 %24, 1
  br i1 %25, label %26, label %30

26:                                               ; preds = %21
  %27 = load ptr, ptr %3, align 8, !tbaa !5
  call void @luaPushError(ptr noundef %27, ptr noundef @.str.114)
  %28 = load ptr, ptr %3, align 8, !tbaa !5
  %29 = call i32 @luaError(ptr noundef %28)
  store i32 %29, ptr %2, align 4
  store i32 1, ptr %6, align 4
  br label %50

30:                                               ; preds = %21
  call void @llvm.lifetime.start.p0(i64 4, ptr %7) #12
  %31 = load ptr, ptr %3, align 8, !tbaa !5
  %32 = load i32, ptr %5, align 4, !tbaa !16
  %33 = sub nsw i32 0, %32
  %34 = call double @lua_tonumber(ptr noundef %31, i32 noundef %33)
  %35 = fptosi double %34 to i32
  store i32 %35, ptr %7, align 4, !tbaa !16
  %36 = load i32, ptr %7, align 4, !tbaa !16
  %37 = icmp ne i32 %36, 2
  br i1 %37, label %38, label %45

38:                                               ; preds = %30
  %39 = load i32, ptr %7, align 4, !tbaa !16
  %40 = icmp ne i32 %39, 3
  br i1 %40, label %41, label %45

41:                                               ; preds = %38
  %42 = load ptr, ptr %3, align 8, !tbaa !5
  call void @luaPushError(ptr noundef %42, ptr noundef @.str.115)
  %43 = load ptr, ptr %3, align 8, !tbaa !5
  %44 = call i32 @luaError(ptr noundef %43)
  store i32 %44, ptr %2, align 4
  store i32 1, ptr %6, align 4
  br label %49

45:                                               ; preds = %38, %30
  %46 = load ptr, ptr %4, align 8, !tbaa !64
  %47 = load i32, ptr %7, align 4, !tbaa !16
  %48 = call i32 @scriptSetResp(ptr noundef %46, i32 noundef %47)
  store i32 0, ptr %2, align 4
  store i32 1, ptr %6, align 4
  br label %49

49:                                               ; preds = %45, %41
  call void @llvm.lifetime.end.p0(i64 4, ptr %7) #12
  br label %50

50:                                               ; preds = %49, %26
  call void @llvm.lifetime.end.p0(i64 4, ptr %5) #12
  call void @llvm.lifetime.end.p0(i64 8, ptr %4) #12
  %51 = load i32, ptr %2, align 4
  ret i32 %51
}