; Function Attrs: nounwind uwtable
define internal i32 @luaSetResp(ptr noundef %0) #0 {
  %2 = tail call ptr @luaGetFromRegistry(ptr noundef %0, ptr noundef nonnull @.str.40)
  %.not = icmp eq ptr %2, null
  br i1 %.not, label %3, label %4, !prof !6

3:                                                ; preds = %1
  tail call void @_serverAssert(ptr noundef nonnull @.str.98, ptr noundef nonnull @.str.1, i32 noundef 1186) #11
  tail call void @abort() #12
  unreachable

4:                                                ; preds = %1
  %5 = tail call i32 @lua_gettop(ptr noundef %0) #11
  %.not17 = icmp eq i32 %5, 1
  br i1 %.not17, label %9, label %6

6:                                                ; preds = %4
  %7 = tail call ptr @sdsnew(ptr noundef nonnull @.str.114) #11
  tail call void @luaPushErrorBuff(ptr noundef %0, ptr noundef %7)
  %8 = tail call i32 @lua_error(ptr noundef %0) #11
  br label %18

9:                                                ; preds = %4
  %10 = tail call double @lua_tonumber(ptr noundef %0, i32 noundef -1) #11
  %11 = fptosi double %10 to i32
  %12 = add i32 %11, -4
  %or.cond = icmp ult i32 %12, -2
  br i1 %or.cond, label %13, label %16

13:                                               ; preds = %9
  %14 = tail call ptr @sdsnew(ptr noundef nonnull @.str.115) #11
  tail call void @luaPushErrorBuff(ptr noundef %0, ptr noundef %14)
  %15 = tail call i32 @lua_error(ptr noundef %0) #11
  br label %18

16:                                               ; preds = %9
  %17 = tail call i32 @scriptSetResp(ptr noundef nonnull %2, i32 noundef %11) #11
  br label %18

18:                                               ; preds = %13, %16, %6
  %.0 = phi i32 [ %8, %6 ], [ %15, %13 ], [ 0, %16 ]
  ret i32 %.0
}